---
triple:          'x86_64-apple-darwin'
binary-path:     '/Users/game/Desktop/Raed_Abuzaid_Fall_24/Build/Products/Release/libTomato.dylib'
relocations:
  - { offset: 0x26, size: 0x8, addend: 0x0, symName: __ZN3Tmt7ShadersC2Ev, symObjAddr: 0x0, symBinAddr: 0xA6C, symSize: 0x84 }
  - { offset: 0x4F68, size: 0x8, addend: 0x0, symName: __ZN3Tmt7ShadersC2Ev, symObjAddr: 0x0, symBinAddr: 0xA6C, symSize: 0x84 }
  - { offset: 0x512B, size: 0x8, addend: 0x0, symName: __ZN3Tmt7ShadersC1Ev, symObjAddr: 0x84, symBinAddr: 0xAF0, symSize: 0xA }
  - { offset: 0x5169, size: 0x8, addend: 0x0, symName: __ZN3Tmt7ShadersC2ERKNSt3__112basic_stringIcNS1_11char_traitsIcEENS1_9allocatorIcEEEES9_, symObjAddr: 0x8E, symBinAddr: 0xAFA, symSize: 0x8C }
  - { offset: 0x534A, size: 0x8, addend: 0x0, symName: __ZN3Tmt7ShadersC1ERKNSt3__112basic_stringIcNS1_11char_traitsIcEENS1_9allocatorIcEEEES9_, symObjAddr: 0x11A, symBinAddr: 0xB86, symSize: 0xA }
  - { offset: 0x53C9, size: 0x8, addend: 0x0, symName: __ZN3Tmt7Shaders11LoadShadersERKNSt3__112basic_stringIcNS1_11char_traitsIcEENS1_9allocatorIcEEEES9_, symObjAddr: 0x124, symBinAddr: 0xB90, symSize: 0x10 }
  - { offset: 0x5440, size: 0x8, addend: 0x0, symName: __ZN3Tmt7Shaders4BindEv, symObjAddr: 0x134, symBinAddr: 0xBA0, symSize: 0xE }
  - { offset: 0x548E, size: 0x8, addend: 0x0, symName: __ZN3Tmt7Shaders13SetIntUniformERKNSt3__112basic_stringIcNS1_11char_traitsIcEENS1_9allocatorIcEEEERKNS1_6vectorIiNS5_IiEEEE, symObjAddr: 0x142, symBinAddr: 0xBAE, symSize: 0x12 }
  - { offset: 0x5505, size: 0x8, addend: 0x0, symName: __ZN3Tmt7Shaders13SetIntUniformERKNSt3__112basic_stringIcNS1_11char_traitsIcEENS1_9allocatorIcEEEEi, symObjAddr: 0x154, symBinAddr: 0xBC0, symSize: 0x12 }
  - { offset: 0x557C, size: 0x8, addend: 0x0, symName: __ZN3Tmt7Shaders8ReadFileERKNSt3__112basic_stringIcNS1_11char_traitsIcEENS1_9allocatorIcEEEE, symObjAddr: 0x166, symBinAddr: 0xBD2, symSize: 0x1C }
  - { offset: 0x78D3, size: 0x8, addend: 0x0, symName: __ZN3Tmt5ImageC2Ev, symObjAddr: 0x0, symBinAddr: 0xBEE, symSize: 0x84 }
  - { offset: 0xAC44, size: 0x8, addend: 0x0, symName: __ZN3Tmt5ImageC2Ev, symObjAddr: 0x0, symBinAddr: 0xBEE, symSize: 0x84 }
  - { offset: 0xAE07, size: 0x8, addend: 0x0, symName: __ZN3Tmt5ImageC1Ev, symObjAddr: 0x84, symBinAddr: 0xC72, symSize: 0xA }
  - { offset: 0xAE45, size: 0x8, addend: 0x0, symName: __ZN3Tmt5ImageC2ERKNSt3__112basic_stringIcNS1_11char_traitsIcEENS1_9allocatorIcEEEE, symObjAddr: 0x8E, symBinAddr: 0xC7C, symSize: 0x8A }
  - { offset: 0xB017, size: 0x8, addend: 0x0, symName: __ZN3Tmt5ImageC1ERKNSt3__112basic_stringIcNS1_11char_traitsIcEENS1_9allocatorIcEEEE, symObjAddr: 0x118, symBinAddr: 0xD06, symSize: 0xA }
  - { offset: 0xB082, size: 0x8, addend: 0x0, symName: __ZN3Tmt5Image9LoadImageERKNSt3__112basic_stringIcNS1_11char_traitsIcEENS1_9allocatorIcEEEE, symObjAddr: 0x122, symBinAddr: 0xD10, symSize: 0x10 }
  - { offset: 0xB0E5, size: 0x8, addend: 0x0, symName: __ZNK3Tmt5Image8HasImageEv, symObjAddr: 0x132, symBinAddr: 0xD20, symSize: 0xE }
  - { offset: 0xB133, size: 0x8, addend: 0x0, symName: __ZNK3Tmt5Image9GetHeightEv, symObjAddr: 0x140, symBinAddr: 0xD2E, symSize: 0xE }
  - { offset: 0xB181, size: 0x8, addend: 0x0, symName: __ZNK3Tmt5Image8GetWidthEv, symObjAddr: 0x14E, symBinAddr: 0xD3C, symSize: 0xE }
  - { offset: 0xB1CF, size: 0x8, addend: 0x0, symName: __ZN3Tmt5Image4BindEv, symObjAddr: 0x15C, symBinAddr: 0xD4A, symSize: 0xE }
  - { offset: 0xD00E, size: 0x8, addend: 0x0, symName: __ZN3Tmt8Renderer9mInstanceE, symObjAddr: 0x1F0, symBinAddr: 0x6000, symSize: 0x0 }
  - { offset: 0xE630, size: 0x8, addend: 0x0, symName: __ZNSt3__110unique_ptrIN3Tmt8RendererENS_14default_deleteIS2_EEED1B8ne180100Ev, symObjAddr: 0x0, symBinAddr: 0xD58, symSize: 0xC }
  - { offset: 0xE68D, size: 0x8, addend: 0x0, symName: __ZNSt3__110unique_ptrIN3Tmt8RendererENS_14default_deleteIS2_EEE5resetB8ne180100EPS2_, symObjAddr: 0x146, symBinAddr: 0xE9E, symSize: 0x3B }
  - { offset: 0xE94C, size: 0x8, addend: 0x0, symName: __ZN3Tmt8RendererC2Ev, symObjAddr: 0xC, symBinAddr: 0xD64, symSize: 0x84 }
  - { offset: 0xEB10, size: 0x8, addend: 0x0, symName: __ZN3Tmt8RendererC1Ev, symObjAddr: 0x90, symBinAddr: 0xDE8, symSize: 0xA }
  - { offset: 0xEB9D, size: 0x8, addend: 0x0, symName: __ZN3Tmt8Renderer4InitEv, symObjAddr: 0x9A, symBinAddr: 0xDF2, symSize: 0x54 }
  - { offset: 0xEC7B, size: 0x8, addend: 0x0, symName: __ZN3Tmt8Renderer4DrawERNS_5ImageEff, symObjAddr: 0xEE, symBinAddr: 0xE46, symSize: 0x1E }
  - { offset: 0xED16, size: 0x8, addend: 0x0, symName: __ZN3Tmt8Renderer4DrawERNS_5ImageEffRNS_7ShadersE, symObjAddr: 0x10C, symBinAddr: 0xE64, symSize: 0x22 }
  - { offset: 0xEDC7, size: 0x8, addend: 0x0, symName: __ZN3Tmt8Renderer11ClearScreenEv, symObjAddr: 0x12E, symBinAddr: 0xE86, symSize: 0x18 }
  - { offset: 0x15398, size: 0x8, addend: 0x0, symName: __ZNSt3__120__throw_length_errorB8ne180100EPKc, symObjAddr: 0x79A, symBinAddr: 0x13CA, symSize: 0x4C }
  - { offset: 0x16575, size: 0x8, addend: 0x0, symName: __ZN3Tmt11OpenGLImageC2Ev, symObjAddr: 0x0, symBinAddr: 0xF24, symSize: 0x20 }
  - { offset: 0x165B4, size: 0x8, addend: 0x0, symName: __ZN3Tmt11OpenGLImageC1Ev, symObjAddr: 0x20, symBinAddr: 0xF44, symSize: 0x20 }
  - { offset: 0x16701, size: 0x8, addend: 0x0, symName: __ZN3Tmt11OpenGLImageC2ERKNSt3__112basic_stringIcNS1_11char_traitsIcEENS1_9allocatorIcEEEE, symObjAddr: 0x40, symBinAddr: 0xF64, symSize: 0x1C4 }
  - { offset: 0x16A3A, size: 0x8, addend: 0x0, symName: __ZN3Tmt11OpenGLImageC1ERKNSt3__112basic_stringIcNS1_11char_traitsIcEENS1_9allocatorIcEEEE, symObjAddr: 0x204, symBinAddr: 0x1128, symSize: 0xA }
  - { offset: 0x16A8B, size: 0x8, addend: 0x0, symName: __ZN3Tmt11OpenGLImage9LoadImageERKNSt3__112basic_stringIcNS1_11char_traitsIcEENS1_9allocatorIcEEEE, symObjAddr: 0x20E, symBinAddr: 0x1132, symSize: 0x1BC }
  - { offset: 0x16D83, size: 0x8, addend: 0x0, symName: __ZNK3Tmt11OpenGLImage8HasImageEv, symObjAddr: 0x3CA, symBinAddr: 0x12EE, symSize: 0xE }
  - { offset: 0x16DA8, size: 0x8, addend: 0x0, symName: __ZNK3Tmt11OpenGLImage9GetHeightEv, symObjAddr: 0x3D8, symBinAddr: 0x12FC, symSize: 0xA }
  - { offset: 0x16DCD, size: 0x8, addend: 0x0, symName: __ZNK3Tmt11OpenGLImage8GetWidthEv, symObjAddr: 0x3E2, symBinAddr: 0x1306, symSize: 0xA }
  - { offset: 0x16DF2, size: 0x8, addend: 0x0, symName: __ZN3Tmt11OpenGLImage4BindEv, symObjAddr: 0x3EC, symBinAddr: 0x1310, symSize: 0x1A }
  - { offset: 0x16E2D, size: 0x8, addend: 0x0, symName: __ZN3Tmt11OpenGLImageD2Ev, symObjAddr: 0x406, symBinAddr: 0x132A, symSize: 0x2A }
  - { offset: 0x16E7B, size: 0x8, addend: 0x0, symName: __ZN3Tmt11OpenGLImageD1Ev, symObjAddr: 0x43E, symBinAddr: 0x1354, symSize: 0x2A }
  - { offset: 0x16EDF, size: 0x8, addend: 0x0, symName: __ZN3Tmt11OpenGLImageD0Ev, symObjAddr: 0x468, symBinAddr: 0x137E, symSize: 0x3B }
  - { offset: 0x173C9, size: 0x8, addend: 0x0, symName: __ZNKSt3__112basic_stringIcNS_11char_traitsIcEENS_9allocatorIcEEE20__throw_length_errorB8ne180100Ev, symObjAddr: 0x78A, symBinAddr: 0x13BA, symSize: 0x10 }
  - { offset: 0x1756F, size: 0x8, addend: 0x0, symName: __ZNKSt3__112basic_stringIcNS_11char_traitsIcEENS_9allocatorIcEEE20__throw_length_errorB8ne180100Ev, symObjAddr: 0x78A, symBinAddr: 0x13BA, symSize: 0x10 }
  - { offset: 0x17598, size: 0x8, addend: 0x0, symName: __ZNSt3__120__throw_length_errorB8ne180100EPKc, symObjAddr: 0x79A, symBinAddr: 0x13CA, symSize: 0x4C }
  - { offset: 0x175A2, size: 0x8, addend: 0x0, symName: __ZNSt12length_errorC1B8ne180100EPKc, symObjAddr: 0x7E6, symBinAddr: 0x1416, symSize: 0x23 }
  - { offset: 0x193C2, size: 0x8, addend: 0x0, symName: __ZN3Tmt8KeyEventC2EiNS0_9KeyActionE, symObjAddr: 0x0, symBinAddr: 0x143A, symSize: 0xC }
  - { offset: 0x194ED, size: 0x8, addend: 0x0, symName: __ZN3Tmt8KeyEventC2EiNS0_9KeyActionE, symObjAddr: 0x0, symBinAddr: 0x143A, symSize: 0xC }
  - { offset: 0x19550, size: 0x8, addend: 0x0, symName: __ZN3Tmt8KeyEventC1EiNS0_9KeyActionE, symObjAddr: 0xC, symBinAddr: 0x1446, symSize: 0xC }
  - { offset: 0x195BD, size: 0x8, addend: 0x0, symName: __ZNK3Tmt8KeyEvent10GetKeyCodeEv, symObjAddr: 0x18, symBinAddr: 0x1452, symSize: 0x8 }
  - { offset: 0x195E2, size: 0x8, addend: 0x0, symName: __ZNK3Tmt8KeyEvent12GetKeyActionEv, symObjAddr: 0x20, symBinAddr: 0x145A, symSize: 0xA }
  - { offset: 0x19608, size: 0x8, addend: 0x0, symName: __ZN3Tmt11WindowEventC2ENS0_12WindowActionE, symObjAddr: 0x2A, symBinAddr: 0x1464, symSize: 0x8 }
  - { offset: 0x19659, size: 0x8, addend: 0x0, symName: __ZN3Tmt11WindowEventC1ENS0_12WindowActionE, symObjAddr: 0x32, symBinAddr: 0x146C, symSize: 0x8 }
  - { offset: 0x196B2, size: 0x8, addend: 0x0, symName: __ZNK3Tmt11WindowEvent15GetWindowActionEv, symObjAddr: 0x3A, symBinAddr: 0x1474, symSize: 0x8 }
  - { offset: 0x1C084, size: 0x8, addend: 0x0, symName: __ZN3Tmt12TomatoWindow8instanceE, symObjAddr: 0xD30, symBinAddr: 0x6010, symSize: 0x0 }
  - { offset: 0x22EBD, size: 0x8, addend: 0x0, symName: __ZNSt3__110unique_ptrIN3Tmt12TomatoWindowENS_14default_deleteIS2_EEED1B8ne180100Ev, symObjAddr: 0x0, symBinAddr: 0x147C, symSize: 0xC }
  - { offset: 0x22F1A, size: 0x8, addend: 0x0, symName: __ZNSt3__110unique_ptrIN3Tmt12TomatoWindowENS_14default_deleteIS2_EEE5resetB8ne180100EPS2_, symObjAddr: 0x8A4, symBinAddr: 0x1C92, symSize: 0x3B }
  - { offset: 0x2329C, size: 0x8, addend: 0x0, symName: __ZN3Tmt14OpenGLRendererC2Ev, symObjAddr: 0xC, symBinAddr: 0x1488, symSize: 0x24C }
  - { offset: 0x23ADA, size: 0x8, addend: 0x0, symName: __ZNSt3__112basic_stringIcNS_11char_traitsIcEENS_9allocatorIcEEEC2B8ne180100ILi0EEEPKc, symObjAddr: 0x782, symBinAddr: 0x1BFE, symSize: 0x94 }
  - { offset: 0x23F06, size: 0x8, addend: 0x0, symName: __ZN3Tmt14OpenGLRendererC1Ev, symObjAddr: 0x258, symBinAddr: 0x16D4, symSize: 0xA }
  - { offset: 0x24223, size: 0x8, addend: 0x0, symName: __ZN3Tmt14OpenGLRenderer4DrawERNS_5ImageEff, symObjAddr: 0x262, symBinAddr: 0x16DE, symSize: 0x2AA }
  - { offset: 0x24B68, size: 0x8, addend: 0x0, symName: __ZN3Tmt14OpenGLRenderer4DrawERNS_5ImageEffRNS_7ShadersE, symObjAddr: 0x50C, symBinAddr: 0x1988, symSize: 0x1E0 }
  - { offset: 0x24C8F, size: 0x8, addend: 0x0, symName: __ZN3Tmt14OpenGLRenderer11ClearScreenEv, symObjAddr: 0x6EC, symBinAddr: 0x1B68, symSize: 0x32 }
  - { offset: 0x24CF2, size: 0x8, addend: 0x0, symName: __ZN3Tmt14OpenGLRendererD1Ev, symObjAddr: 0x71E, symBinAddr: 0x1B9A, symSize: 0x2C }
  - { offset: 0x24E1A, size: 0x8, addend: 0x0, symName: __ZN3Tmt14OpenGLRendererD0Ev, symObjAddr: 0x74A, symBinAddr: 0x1BC6, symSize: 0x38 }
  - { offset: 0x36174, size: 0x8, addend: 0x0, symName: __ZNSt3__17getlineB8ne180100IcNS_11char_traitsIcEENS_9allocatorIcEEEERNS_13basic_istreamIT_T0_EES9_RNS_12basic_stringIS6_S7_T1_EES6_, symObjAddr: 0x1314, symBinAddr: 0x2D54, symSize: 0x12F }
  - { offset: 0x38084, size: 0x8, addend: 0x0, symName: __ZN3Tmt13OpenGLShadersC2Ev, symObjAddr: 0x0, symBinAddr: 0x1D18, symSize: 0x18 }
  - { offset: 0x380C3, size: 0x8, addend: 0x0, symName: __ZN3Tmt13OpenGLShadersC1Ev, symObjAddr: 0x18, symBinAddr: 0x1D30, symSize: 0x18 }
  - { offset: 0x38299, size: 0x8, addend: 0x0, symName: __ZN3Tmt13OpenGLShadersC2ERKNSt3__112basic_stringIcNS1_11char_traitsIcEENS1_9allocatorIcEEEES9_, symObjAddr: 0x30, symBinAddr: 0x1D48, symSize: 0x484 }
  - { offset: 0x38FED, size: 0x8, addend: 0x0, symName: __ZN3Tmt13OpenGLShaders8ReadFileERKNSt3__112basic_stringIcNS1_11char_traitsIcEENS1_9allocatorIcEEEE, symObjAddr: 0xBB8, symBinAddr: 0x28D0, symSize: 0x280 }
  - { offset: 0x39902, size: 0x8, addend: 0x0, symName: __ZN3Tmt13OpenGLShadersC1ERKNSt3__112basic_stringIcNS1_11char_traitsIcEENS1_9allocatorIcEEEES9_, symObjAddr: 0x4B4, symBinAddr: 0x21CC, symSize: 0xA }
  - { offset: 0x39968, size: 0x8, addend: 0x0, symName: __ZN3Tmt13OpenGLShaders11LoadShadersERKNSt3__112basic_stringIcNS1_11char_traitsIcEENS1_9allocatorIcEEEES9_, symObjAddr: 0x4BE, symBinAddr: 0x21D6, symSize: 0x48A }
  - { offset: 0x3A6BE, size: 0x8, addend: 0x0, symName: __ZN3Tmt13OpenGLShaders4BindEv, symObjAddr: 0x948, symBinAddr: 0x2660, symSize: 0x12 }
  - { offset: 0x3A709, size: 0x8, addend: 0x0, symName: __ZN3Tmt13OpenGLShaders13SetIntUniformERKNSt3__112basic_stringIcNS1_11char_traitsIcEENS1_9allocatorIcEEEERKNS1_6vectorIiNS5_IiEEEE, symObjAddr: 0x95A, symBinAddr: 0x2672, symSize: 0x16E }
  - { offset: 0x3A953, size: 0x8, addend: 0x0, symName: __ZN3Tmt13OpenGLShaders13SetIntUniformERKNSt3__112basic_stringIcNS1_11char_traitsIcEENS1_9allocatorIcEEEEi, symObjAddr: 0xAC8, symBinAddr: 0x27E0, symSize: 0x58 }
  - { offset: 0x3AA44, size: 0x8, addend: 0x0, symName: __ZN3Tmt13OpenGLShadersD2Ev, symObjAddr: 0xB20, symBinAddr: 0x2838, symSize: 0x28 }
  - { offset: 0x3AA8C, size: 0x8, addend: 0x0, symName: __ZN3Tmt13OpenGLShadersD1Ev, symObjAddr: 0xB56, symBinAddr: 0x286E, symSize: 0x28 }
  - { offset: 0x3AAEA, size: 0x8, addend: 0x0, symName: __ZN3Tmt13OpenGLShadersD0Ev, symObjAddr: 0xB7E, symBinAddr: 0x2896, symSize: 0x3A }
  - { offset: 0x3B111, size: 0x8, addend: 0x0, symName: __ZNSt3__114basic_ifstreamIcNS_11char_traitsIcEEEC1ERKNS_12basic_stringIcS2_NS_9allocatorIcEEEEj, symObjAddr: 0xE38, symBinAddr: 0x2B50, symSize: 0x128 }
  - { offset: 0x3B2B4, size: 0x8, addend: 0x0, symName: __ZNSt3__114basic_ifstreamIcNS_11char_traitsIcEEED1Ev, symObjAddr: 0xF60, symBinAddr: 0x2C78, symSize: 0x4E }
  - { offset: 0x3B5D8, size: 0x8, addend: 0x0, symName: __ZNSt3__112basic_stringIcNS_11char_traitsIcEENS_9allocatorIcEEEC2B8ne180100Emc, symObjAddr: 0x1288, symBinAddr: 0x2CC8, symSize: 0x8C }
  - { offset: 0x3B88A, size: 0x8, addend: 0x0, symName: __ZNSt3__17getlineB8ne180100IcNS_11char_traitsIcEENS_9allocatorIcEEEERNS_13basic_istreamIT_T0_EES9_RNS_12basic_stringIS6_S7_T1_EES6_, symObjAddr: 0x1314, symBinAddr: 0x2D54, symSize: 0x12F }
  - { offset: 0x41538, size: 0x8, addend: 0x0, symName: __ZNSt3__124__put_character_sequenceB8ne180100IcNS_11char_traitsIcEEEERNS_13basic_ostreamIT_T0_EES7_PKS4_m, symObjAddr: 0x65C, symBinAddr: 0x34D2, symSize: 0x150 }
  - { offset: 0x4260B, size: 0x8, addend: 0x0, symName: __ZNSt3__125__throw_bad_function_callB8ne180100Ev, symObjAddr: 0x5CB, symBinAddr: 0x3441, symSize: 0x33 }
  - { offset: 0x426C5, size: 0x8, addend: 0x0, symName: __ZNSt3__116__pad_and_outputB8ne180100IcNS_11char_traitsIcEEEENS_19ostreambuf_iteratorIT_T0_EES6_PKS4_S8_S8_RNS_8ios_baseES4_, symObjAddr: 0x7AC, symBinAddr: 0x3622, symSize: 0x10C }
  - { offset: 0x44CD9, size: 0x8, addend: 0x0, symName: __ZN3Tmt10WindowGLFWC2Ev, symObjAddr: 0x0, symBinAddr: 0x2E84, symSize: 0x8A }
  - { offset: 0x44F6A, size: 0x8, addend: 0x0, symName: __ZN3Tmt10WindowGLFW9CallBacksD1Ev, symObjAddr: 0x8A, symBinAddr: 0x2F0E, symSize: 0x5E }
  - { offset: 0x45179, size: 0x8, addend: 0x0, symName: __ZN3Tmt10WindowGLFWC1Ev, symObjAddr: 0xE8, symBinAddr: 0x2F6C, symSize: 0xA }
  - { offset: 0x452B4, size: 0x8, addend: 0x0, symName: __ZN3Tmt10WindowGLFW6CreateEiiNSt3__112basic_stringIcNS1_11char_traitsIcEENS1_9allocatorIcEEEE, symObjAddr: 0xF2, symBinAddr: 0x2F76, symSize: 0xFC }
  - { offset: 0x4563A, size: 0x8, addend: 0x0, symName: __ZNK3Tmt10WindowGLFW8GetWidthEv, symObjAddr: 0x1EE, symBinAddr: 0x3072, symSize: 0x2A }
  - { offset: 0x456B4, size: 0x8, addend: 0x0, symName: __ZNK3Tmt10WindowGLFW9GetHeightEv, symObjAddr: 0x218, symBinAddr: 0x309C, symSize: 0x2A }
  - { offset: 0x45716, size: 0x8, addend: 0x0, symName: __ZN3Tmt10WindowGLFW18SetKeyEventHandlerERKNSt3__18functionIFvRKNS_8KeyEventEEEE, symObjAddr: 0x242, symBinAddr: 0x30C6, symSize: 0xE }
  - { offset: 0x45760, size: 0x8, addend: 0x0, symName: __ZNSt3__18functionIFvRKN3Tmt8KeyEventEEEaSERKS6_, symObjAddr: 0x250, symBinAddr: 0x30D4, symSize: 0x78 }
  - { offset: 0x4598B, size: 0x8, addend: 0x0, symName: __ZNSt3__110__function12__value_funcIFvRKN3Tmt8KeyEventEEEC2B8ne180100ERKS7_, symObjAddr: 0x9C4, symBinAddr: 0x372E, symSize: 0x4C }
  - { offset: 0x459DB, size: 0x8, addend: 0x0, symName: __ZNSt3__110__function12__value_funcIFvRKN3Tmt8KeyEventEEE4swapB8ne180100ERS7_, symObjAddr: 0xA10, symBinAddr: 0x377A, symSize: 0x11C }
  - { offset: 0x45B07, size: 0x8, addend: 0x0, symName: __ZN3Tmt10WindowGLFW21SetWindowEventHandlerENSt3__18functionIFvRKNS_11WindowEventEEEE, symObjAddr: 0x2C8, symBinAddr: 0x314C, symSize: 0xE }
  - { offset: 0x45B52, size: 0x8, addend: 0x0, symName: __ZNSt3__18functionIFvRKN3Tmt11WindowEventEEEaSERKS6_, symObjAddr: 0x2D6, symBinAddr: 0x315A, symSize: 0x78 }
  - { offset: 0x45DB7, size: 0x8, addend: 0x0, symName: __ZNSt3__110__function12__value_funcIFvRKN3Tmt11WindowEventEEE4swapB8ne180100ERS7_, symObjAddr: 0xB78, symBinAddr: 0x3896, symSize: 0x11C }
  - { offset: 0x45EE3, size: 0x8, addend: 0x0, symName: __ZN3Tmt10WindowGLFW11SwapBuffersEv, symObjAddr: 0x34E, symBinAddr: 0x31D2, symSize: 0xE }
  - { offset: 0x45F26, size: 0x8, addend: 0x0, symName: __ZN3Tmt10WindowGLFW10PollEventsEv, symObjAddr: 0x35C, symBinAddr: 0x31E0, symSize: 0xA }
  - { offset: 0x45F9C, size: 0x8, addend: 0x0, symName: __ZN3Tmt10WindowGLFWD1Ev, symObjAddr: 0x366, symBinAddr: 0x31EA, symSize: 0x6A }
  - { offset: 0x4610D, size: 0x8, addend: 0x0, symName: __ZN3Tmt10WindowGLFWD0Ev, symObjAddr: 0x3D0, symBinAddr: 0x3254, symSize: 0x6E }
  - { offset: 0x462AC, size: 0x8, addend: 0x0, symName: __ZNSt3__110__function6__funcIN3Tmt10WindowGLFW9CallBacks15KeyEventHandlerMUlRKNS2_8KeyEventEE_ENS_9allocatorIS8_EEFvS7_EED1Ev, symObjAddr: 0x43E, symBinAddr: 0x32C2, symSize: 0x6 }
  - { offset: 0x462D5, size: 0x8, addend: 0x0, symName: __ZNSt3__110__function6__funcIN3Tmt10WindowGLFW9CallBacks15KeyEventHandlerMUlRKNS2_8KeyEventEE_ENS_9allocatorIS8_EEFvS7_EED0Ev, symObjAddr: 0x444, symBinAddr: 0x32C8, symSize: 0xA }
  - { offset: 0x46388, size: 0x8, addend: 0x0, symName: __ZNKSt3__110__function6__funcIN3Tmt10WindowGLFW9CallBacks15KeyEventHandlerMUlRKNS2_8KeyEventEE_ENS_9allocatorIS8_EEFvS7_EE7__cloneEv, symObjAddr: 0x44E, symBinAddr: 0x32D2, symSize: 0x1E }
  - { offset: 0x464D0, size: 0x8, addend: 0x0, symName: __ZNKSt3__110__function6__funcIN3Tmt10WindowGLFW9CallBacks15KeyEventHandlerMUlRKNS2_8KeyEventEE_ENS_9allocatorIS8_EEFvS7_EE7__cloneEPNS0_6__baseISB_EE, symObjAddr: 0x46C, symBinAddr: 0x32F0, symSize: 0x14 }
  - { offset: 0x46563, size: 0x8, addend: 0x0, symName: __ZNSt3__110__function6__funcIN3Tmt10WindowGLFW9CallBacks15KeyEventHandlerMUlRKNS2_8KeyEventEE_ENS_9allocatorIS8_EEFvS7_EE7destroyEv, symObjAddr: 0x480, symBinAddr: 0x3304, symSize: 0x6 }
  - { offset: 0x465B3, size: 0x8, addend: 0x0, symName: __ZNSt3__110__function6__funcIN3Tmt10WindowGLFW9CallBacks15KeyEventHandlerMUlRKNS2_8KeyEventEE_ENS_9allocatorIS8_EEFvS7_EE18destroy_deallocateEv, symObjAddr: 0x486, symBinAddr: 0x330A, symSize: 0xA }
  - { offset: 0x46686, size: 0x8, addend: 0x0, symName: __ZNSt3__110__function6__funcIN3Tmt10WindowGLFW9CallBacks15KeyEventHandlerMUlRKNS2_8KeyEventEE_ENS_9allocatorIS8_EEFvS7_EEclES7_, symObjAddr: 0x490, symBinAddr: 0x3314, symSize: 0x6 }
  - { offset: 0x466FE, size: 0x8, addend: 0x0, symName: __ZNKSt3__110__function6__funcIN3Tmt10WindowGLFW9CallBacks15KeyEventHandlerMUlRKNS2_8KeyEventEE_ENS_9allocatorIS8_EEFvS7_EE6targetERKSt9type_info, symObjAddr: 0x496, symBinAddr: 0x331A, symSize: 0x1C }
  - { offset: 0x4676D, size: 0x8, addend: 0x0, symName: __ZNKSt3__110__function6__funcIN3Tmt10WindowGLFW9CallBacks15KeyEventHandlerMUlRKNS2_8KeyEventEE_ENS_9allocatorIS8_EEFvS7_EE11target_typeEv, symObjAddr: 0x4B2, symBinAddr: 0x3336, symSize: 0xD }
  - { offset: 0x46792, size: 0x8, addend: 0x0, symName: __ZNSt3__110__function6__funcIN3Tmt10WindowGLFW9CallBacks18WindowEventHandlerMUlRKNS2_11WindowEventEE_ENS_9allocatorIS8_EEFvS7_EED1Ev, symObjAddr: 0x4CE, symBinAddr: 0x3344, symSize: 0x6 }
  - { offset: 0x467BB, size: 0x8, addend: 0x0, symName: __ZNSt3__110__function6__funcIN3Tmt10WindowGLFW9CallBacks18WindowEventHandlerMUlRKNS2_11WindowEventEE_ENS_9allocatorIS8_EEFvS7_EED0Ev, symObjAddr: 0x4D4, symBinAddr: 0x334A, symSize: 0xA }
  - { offset: 0x46869, size: 0x8, addend: 0x0, symName: __ZNKSt3__110__function6__funcIN3Tmt10WindowGLFW9CallBacks18WindowEventHandlerMUlRKNS2_11WindowEventEE_ENS_9allocatorIS8_EEFvS7_EE7__cloneEv, symObjAddr: 0x4DE, symBinAddr: 0x3354, symSize: 0x1E }
  - { offset: 0x469B1, size: 0x8, addend: 0x0, symName: __ZNKSt3__110__function6__funcIN3Tmt10WindowGLFW9CallBacks18WindowEventHandlerMUlRKNS2_11WindowEventEE_ENS_9allocatorIS8_EEFvS7_EE7__cloneEPNS0_6__baseISB_EE, symObjAddr: 0x4FC, symBinAddr: 0x3372, symSize: 0x14 }
  - { offset: 0x46A44, size: 0x8, addend: 0x0, symName: __ZNSt3__110__function6__funcIN3Tmt10WindowGLFW9CallBacks18WindowEventHandlerMUlRKNS2_11WindowEventEE_ENS_9allocatorIS8_EEFvS7_EE7destroyEv, symObjAddr: 0x510, symBinAddr: 0x3386, symSize: 0x6 }
  - { offset: 0x46A94, size: 0x8, addend: 0x0, symName: __ZNSt3__110__function6__funcIN3Tmt10WindowGLFW9CallBacks18WindowEventHandlerMUlRKNS2_11WindowEventEE_ENS_9allocatorIS8_EEFvS7_EE18destroy_deallocateEv, symObjAddr: 0x516, symBinAddr: 0x338C, symSize: 0xA }
  - { offset: 0x46B67, size: 0x8, addend: 0x0, symName: __ZNSt3__110__function6__funcIN3Tmt10WindowGLFW9CallBacks18WindowEventHandlerMUlRKNS2_11WindowEventEE_ENS_9allocatorIS8_EEFvS7_EEclES7_, symObjAddr: 0x520, symBinAddr: 0x3396, symSize: 0x6 }
  - { offset: 0x46B9C, size: 0x8, addend: 0x0, symName: __ZNKSt3__110__function6__funcIN3Tmt10WindowGLFW9CallBacks18WindowEventHandlerMUlRKNS2_11WindowEventEE_ENS_9allocatorIS8_EEFvS7_EE6targetERKSt9type_info, symObjAddr: 0x526, symBinAddr: 0x339C, symSize: 0x1C }
  - { offset: 0x46C0B, size: 0x8, addend: 0x0, symName: __ZNKSt3__110__function6__funcIN3Tmt10WindowGLFW9CallBacks18WindowEventHandlerMUlRKNS2_11WindowEventEE_ENS_9allocatorIS8_EEFvS7_EE11target_typeEv, symObjAddr: 0x542, symBinAddr: 0x33B8, symSize: 0xE }
  - { offset: 0x46D2D, size: 0x8, addend: 0x0, symName: '__ZZN3Tmt10WindowGLFW6CreateEiiNSt3__112basic_stringIcNS1_11char_traitsIcEENS1_9allocatorIcEEEEEN3$_08__invokeEP10GLFWwindowiiii', symObjAddr: 0x550, symBinAddr: 0x33C6, symSize: 0x7B }
  - { offset: 0x46E5A, size: 0x8, addend: 0x0, symName: __ZNSt3__125__throw_bad_function_callB8ne180100Ev, symObjAddr: 0x5CB, symBinAddr: 0x3441, symSize: 0x33 }
  - { offset: 0x46ED8, size: 0x8, addend: 0x0, symName: __ZNSt3__117bad_function_callD1Ev, symObjAddr: 0x5FE, symBinAddr: 0x3474, symSize: 0xA }
  - { offset: 0x46F2B, size: 0x8, addend: 0x0, symName: __ZNSt3__117bad_function_callD0Ev, symObjAddr: 0x608, symBinAddr: 0x347E, symSize: 0x1C }
  - { offset: 0x47024, size: 0x8, addend: 0x0, symName: '__ZZN3Tmt10WindowGLFW6CreateEiiNSt3__112basic_stringIcNS1_11char_traitsIcEENS1_9allocatorIcEEEEEN3$_18__invokeEP10GLFWwindow', symObjAddr: 0x624, symBinAddr: 0x349A, symSize: 0x38 }
  - { offset: 0x470E2, size: 0x8, addend: 0x0, symName: __ZNSt3__124__put_character_sequenceB8ne180100IcNS_11char_traitsIcEEEERNS_13basic_ostreamIT_T0_EES7_PKS4_m, symObjAddr: 0x65C, symBinAddr: 0x34D2, symSize: 0x150 }
  - { offset: 0x4EA67, size: 0x8, addend: 0x0, symName: __ZN3Tmt17TomatoApplication3RunEv, symObjAddr: 0x18, symBinAddr: 0x39B2, symSize: 0x246 }
  - { offset: 0x50036, size: 0x8, addend: 0x0, symName: __ZN3Tmt17TomatoApplication21SetWindowEventHandlerENSt3__18functionIFvRKNS_11WindowEventEEEE, symObjAddr: 0x25E, symBinAddr: 0x3BF8, symSize: 0xB8 }
  - { offset: 0x502E5, size: 0x8, addend: 0x0, symName: __ZN3Tmt17TomatoApplication10InitializeEv, symObjAddr: 0x316, symBinAddr: 0x3CB0, symSize: 0x6 }
  - { offset: 0x50308, size: 0x8, addend: 0x0, symName: __ZN3Tmt17TomatoApplication6UpdateEv, symObjAddr: 0x31C, symBinAddr: 0x3CB6, symSize: 0x6 }
  - { offset: 0x5032B, size: 0x8, addend: 0x0, symName: __ZN3Tmt17TomatoApplication8ShutdownEv, symObjAddr: 0x322, symBinAddr: 0x3CBC, symSize: 0x6 }
  - { offset: 0x5034E, size: 0x8, addend: 0x0, symName: __ZN3Tmt17TomatoApplication18SetKeyEventHandlerERKNSt3__18functionIFvRKNS_8KeyEventEEEE, symObjAddr: 0x328, symBinAddr: 0x3CC2, symSize: 0x20 }
  - { offset: 0x503A1, size: 0x8, addend: 0x0, symName: __ZN3Tmt17TomatoApplication25DefaultWindowEventHandlerERKNS_11WindowEventE, symObjAddr: 0x348, symBinAddr: 0x3CE2, symSize: 0x20 }
  - { offset: 0x50661, size: 0x8, addend: 0x0, symName: '__ZNSt3__110__function6__funcIZN3Tmt17TomatoApplication3RunEvE3$_0NS_9allocatorIS4_EEFvRKNS2_11WindowEventEEED1Ev', symObjAddr: 0x4F4, symBinAddr: 0x3D02, symSize: 0x6 }
  - { offset: 0x50688, size: 0x8, addend: 0x0, symName: '__ZNSt3__110__function6__funcIZN3Tmt17TomatoApplication3RunEvE3$_0NS_9allocatorIS4_EEFvRKNS2_11WindowEventEEED0Ev', symObjAddr: 0x4FA, symBinAddr: 0x3D08, symSize: 0xA }
  - { offset: 0x5087F, size: 0x8, addend: 0x0, symName: '__ZNKSt3__110__function6__funcIZN3Tmt17TomatoApplication3RunEvE3$_0NS_9allocatorIS4_EEFvRKNS2_11WindowEventEEE7__cloneEv', symObjAddr: 0x504, symBinAddr: 0x3D12, symSize: 0x2C }
  - { offset: 0x50B9B, size: 0x8, addend: 0x0, symName: '__ZNKSt3__110__function6__funcIZN3Tmt17TomatoApplication3RunEvE3$_0NS_9allocatorIS4_EEFvRKNS2_11WindowEventEEE7__cloneEPNS0_6__baseISA_EE', symObjAddr: 0x530, symBinAddr: 0x3D3E, symSize: 0x18 }
  - { offset: 0x50D16, size: 0x8, addend: 0x0, symName: '__ZNSt3__110__function6__funcIZN3Tmt17TomatoApplication3RunEvE3$_0NS_9allocatorIS4_EEFvRKNS2_11WindowEventEEE7destroyEv', symObjAddr: 0x548, symBinAddr: 0x3D56, symSize: 0x6 }
  - { offset: 0x50D64, size: 0x8, addend: 0x0, symName: '__ZNSt3__110__function6__funcIZN3Tmt17TomatoApplication3RunEvE3$_0NS_9allocatorIS4_EEFvRKNS2_11WindowEventEEE18destroy_deallocateEv', symObjAddr: 0x54E, symBinAddr: 0x3D5C, symSize: 0xA }
  - { offset: 0x50ED6, size: 0x8, addend: 0x0, symName: '__ZNSt3__110__function6__funcIZN3Tmt17TomatoApplication3RunEvE3$_0NS_9allocatorIS4_EEFvRKNS2_11WindowEventEEEclES9_', symObjAddr: 0x558, symBinAddr: 0x3D66, symSize: 0x22 }
  - { offset: 0x51016, size: 0x8, addend: 0x0, symName: '__ZNKSt3__110__function6__funcIZN3Tmt17TomatoApplication3RunEvE3$_0NS_9allocatorIS4_EEFvRKNS2_11WindowEventEEE6targetERKSt9type_info', symObjAddr: 0x57A, symBinAddr: 0x3D88, symSize: 0x1C }
  - { offset: 0x51087, size: 0x8, addend: 0x0, symName: '__ZNKSt3__110__function6__funcIZN3Tmt17TomatoApplication3RunEvE3$_0NS_9allocatorIS4_EEFvRKNS2_11WindowEventEEE11target_typeEv', symObjAddr: 0x596, symBinAddr: 0x3DA4, symSize: 0xE }
  - { offset: 0x5657D, size: 0x8, addend: 0x0, symName: __ZN3Tmt12TomatoWindowC2Ev, symObjAddr: 0xC, symBinAddr: 0x3E46, symSize: 0x84 }
  - { offset: 0x5674F, size: 0x8, addend: 0x0, symName: __ZN3Tmt12TomatoWindowC1Ev, symObjAddr: 0x90, symBinAddr: 0x3ECA, symSize: 0xA }
  - { offset: 0x567D7, size: 0x8, addend: 0x0, symName: __ZN3Tmt12TomatoWindow4InitEv, symObjAddr: 0x9A, symBinAddr: 0x3ED4, symSize: 0x54 }
  - { offset: 0x56862, size: 0x8, addend: 0x0, symName: __ZN3Tmt12TomatoWindow9GetWindowEv, symObjAddr: 0xEE, symBinAddr: 0x3F28, symSize: 0xE }
  - { offset: 0x569C2, size: 0x8, addend: 0x0, symName: __ZN3Tmt12TomatoWindow12CreateWindowEiiNSt3__112basic_stringIcNS1_11char_traitsIcEENS1_9allocatorIcEEEE, symObjAddr: 0xFC, symBinAddr: 0x3F36, symSize: 0x82 }
  - { offset: 0x56D39, size: 0x8, addend: 0x0, symName: __ZNSt3__112basic_stringIcNS_11char_traitsIcEENS_9allocatorIcEEE25__init_copy_ctor_externalEPKcm, symObjAddr: 0x276, symBinAddr: 0x40B0, symSize: 0x84 }
  - { offset: 0x57121, size: 0x8, addend: 0x0, symName: __ZNK3Tmt12TomatoWindow8GetWidthEv, symObjAddr: 0x17E, symBinAddr: 0x3FB8, symSize: 0xE }
  - { offset: 0x5716F, size: 0x8, addend: 0x0, symName: __ZNK3Tmt12TomatoWindow9GetHeightEv, symObjAddr: 0x18C, symBinAddr: 0x3FC6, symSize: 0xE }
  - { offset: 0x571BD, size: 0x8, addend: 0x0, symName: __ZN3Tmt12TomatoWindow18SetKeyEventHandlerERKNSt3__18functionIFvRKNS_8KeyEventEEEE, symObjAddr: 0x19A, symBinAddr: 0x3FD4, symSize: 0x12 }
  - { offset: 0x57302, size: 0x8, addend: 0x0, symName: __ZN3Tmt12TomatoWindow21SetWindowEventHandlerENSt3__18functionIFvRKNS_11WindowEventEEEE, symObjAddr: 0x1AC, symBinAddr: 0x3FE6, symSize: 0xAE }
  - { offset: 0x57552, size: 0x8, addend: 0x0, symName: __ZN3Tmt12TomatoWindow11SwapBuffersEv, symObjAddr: 0x25A, symBinAddr: 0x4094, symSize: 0xE }
  - { offset: 0x575A0, size: 0x8, addend: 0x0, symName: __ZN3Tmt12TomatoWindow10PollEventsEv, symObjAddr: 0x268, symBinAddr: 0x40A2, symSize: 0xE }
...
